target datalayout = "e-m:e-p270:32:32-p271:32:32-p272:64:64-i64:64-i128:128-f80:128-n8:16:32:64-S128"
target triple = "x86_64-unknown-linux-gnu"

%"class.std::__cxx11::basic_string" = type { %"struct.std::__cxx11::basic_string<char>::_Alloc_hider", i64, %union.anon }
%"struct.std::__cxx11::basic_string<char>::_Alloc_hider" = type { ptr }
%union.anon = type { i64, [8 x i8] }
%"class.std::__cxx11::basic_stringstream" = type { %"class.std::basic_iostream.base", %"class.std::__cxx11::basic_stringbuf", %"class.std::basic_ios" }
%"class.std::basic_iostream.base" = type { %"class.std::basic_istream.base", %"class.std::basic_ostream.base" }
%"class.std::basic_istream.base" = type { ptr, i64 }
%"class.std::basic_ostream.base" = type { ptr }
%"class.std::__cxx11::basic_stringbuf" = type { %"class.std::basic_streambuf", i32, %"class.std::__cxx11::basic_string" }
%"class.std::basic_streambuf" = type { ptr, ptr, ptr, ptr, ptr, ptr, ptr, %"class.std::locale" }
%"class.std::locale" = type { ptr }
%"class.std::basic_ios" = type { %"class.std::ios_base", ptr, i8, i8, ptr, ptr, ptr, ptr }
%"class.std::ios_base" = type { ptr, i64, i64, i32, i32, i32, ptr, %"struct.std::ios_base::_Words", [8 x %"struct.std::ios_base::_Words"], i32, ptr, %"class.std::locale" }
%"struct.std::ios_base::_Words" = type { ptr, i64 }
%"class.tinyobj::MaterialReader" = type { ptr }
%"class.tinyobj::MaterialStreamReader" = type { %"class.tinyobj::MaterialReader", ptr }

@.str.44 = private unnamed_addr constant [34 x i8] c"Material stream in error state. \0A\00", align 1

; Function Attrs: mustprogress uwtable
define noundef zeroext i1 @_ZN7tinyobj20MaterialStreamReaderclERKNSt7__cxx1112basic_stringIcSt11char_traitsIcESaIcEEEPSt6vectorINS_10material_tESaISA_EEPSt3mapIS6_iSt4lessIS6_ESaISt4pairIS7_iEEEPS6_SM_(ptr noundef nonnull align 8 dereferenceable(16) %this, ptr noundef nonnull align 8 dereferenceable(32) %matId, ptr noundef %materials, ptr noundef %matMap, ptr noundef %warn, ptr noundef %err) unnamed_addr #2 align 2 personality ptr @__gxx_personality_v0 {
entry:
  %retval = alloca i1, align 1
  %this.addr = alloca ptr, align 8
  %matId.addr = alloca ptr, align 8
  %materials.addr = alloca ptr, align 8
  %matMap.addr = alloca ptr, align 8
  %warn.addr = alloca ptr, align 8
  %err.addr = alloca ptr, align 8
  %ss = alloca %"class.std::__cxx11::basic_stringstream", align 8
  %exn.slot = alloca ptr, align 8
  %ehselector.slot = alloca i32, align 4
  %ref.tmp = alloca %"class.std::__cxx11::basic_string", align 8
  store ptr %this, ptr %this.addr, align 8
  store ptr %matId, ptr %matId.addr, align 8
  store ptr %materials, ptr %materials.addr, align 8
  store ptr %matMap, ptr %matMap.addr, align 8
  store ptr %warn, ptr %warn.addr, align 8
  store ptr %err, ptr %err.addr, align 8
  %this1 = load ptr, ptr %this.addr, align 8
  %m_inStream = getelementptr inbounds %"class.tinyobj::MaterialStreamReader", ptr %this1, i32 0, i32 1
  %0 = load ptr, ptr %m_inStream, align 8
  %vtable = load ptr, ptr %0, align 8
  %vbase.offset.ptr = getelementptr i8, ptr %vtable, i64 -24
  %vbase.offset = load i64, ptr %vbase.offset.ptr, align 8
  %add.ptr = getelementptr inbounds i8, ptr %0, i64 %vbase.offset
  %call = call noundef zeroext i1 @_ZNKSt9basic_iosIcSt11char_traitsIcEEntEv(ptr noundef nonnull align 8 dereferenceable(264) %add.ptr)
  br i1 %call, label %if.then, label %if.end9

if.then:                                          ; preds = %entry
  call void @_ZNSt7__cxx1118basic_stringstreamIcSt11char_traitsIcESaIcEEC1Ev(ptr noundef nonnull align 8 dereferenceable(128) %ss)
  %add.ptr2 = getelementptr inbounds i8, ptr %ss, i64 16
  %call3 = invoke noundef nonnull align 8 dereferenceable(8) ptr @_ZStlsISt11char_traitsIcEERSt13basic_ostreamIcT_ES5_PKc(ptr noundef nonnull align 8 dereferenceable(8) %add.ptr2, ptr noundef @.str.44)
          to label %invoke.cont unwind label %lpad

invoke.cont:                                      ; preds = %if.then
  %1 = load ptr, ptr %warn.addr, align 8
  %tobool = icmp ne ptr %1, null
  br i1 %tobool, label %if.then4, label %if.end

if.then4:                                         ; preds = %invoke.cont
  invoke void @_ZNKSt7__cxx1118basic_stringstreamIcSt11char_traitsIcESaIcEE3strEv(ptr sret(%"class.std::__cxx11::basic_string") align 8 %ref.tmp, ptr noundef nonnull align 8 dereferenceable(128) %ss)
          to label %invoke.cont5 unwind label %lpad

invoke.cont5:                                     ; preds = %if.then4
  %2 = load ptr, ptr %warn.addr, align 8
  %call8 = invoke noundef nonnull align 8 dereferenceable(32) ptr @_ZNSt7__cxx1112basic_stringIcSt11char_traitsIcESaIcEEpLERKS4_(ptr noundef nonnull align 8 dereferenceable(32) %2, ptr noundef nonnull align 8 dereferenceable(32) %ref.tmp)
          to label %invoke.cont7 unwind label %lpad6

invoke.cont7:                                     ; preds = %invoke.cont5
  call void @_ZNSt7__cxx1112basic_stringIcSt11char_traitsIcESaIcEED1Ev(ptr noundef nonnull align 8 dereferenceable(32) %ref.tmp) #14
  br label %if.end

lpad:                                             ; preds = %if.then4, %if.then
  %3 = landingpad { ptr, i32 }
          cleanup
  %4 = extractvalue { ptr, i32 } %3, 0
  store ptr %4, ptr %exn.slot, align 8
  %5 = extractvalue { ptr, i32 } %3, 1
  store i32 %5, ptr %ehselector.slot, align 4
  br label %ehcleanup

lpad6:                                            ; preds = %invoke.cont5
  %6 = landingpad { ptr, i32 }
          cleanup
  %7 = extractvalue { ptr, i32 } %6, 0
  store ptr %7, ptr %exn.slot, align 8
  %8 = extractvalue { ptr, i32 } %6, 1
  store i32 %8, ptr %ehselector.slot, align 4
  call void @_ZNSt7__cxx1112basic_stringIcSt11char_traitsIcESaIcEED1Ev(ptr noundef nonnull align 8 dereferenceable(32) %ref.tmp) #14
  br label %ehcleanup

if.end:                                           ; preds = %invoke.cont7, %invoke.cont
  store i1 false, ptr %retval, align 1
  call void @_ZNSt7__cxx1118basic_stringstreamIcSt11char_traitsIcESaIcEED1Ev(ptr noundef nonnull align 8 dereferenceable(128) %ss) #14
  br label %return

ehcleanup:                                        ; preds = %lpad6, %lpad
  call void @_ZNSt7__cxx1118basic_stringstreamIcSt11char_traitsIcESaIcEED1Ev(ptr noundef nonnull align 8 dereferenceable(128) %ss) #14
  br label %eh.resume

if.end9:                                          ; preds = %entry
  %9 = load ptr, ptr %matMap.addr, align 8
  %10 = load ptr, ptr %materials.addr, align 8
  %m_inStream10 = getelementptr inbounds %"class.tinyobj::MaterialStreamReader", ptr %this1, i32 0, i32 1
  %11 = load ptr, ptr %m_inStream10, align 8
  %12 = load ptr, ptr %warn.addr, align 8
  %13 = load ptr, ptr %err.addr, align 8
  call void @_ZN7tinyobj7LoadMtlEPSt3mapINSt7__cxx1112basic_stringIcSt11char_traitsIcESaIcEEEiSt4lessIS6_ESaISt4pairIKS6_iEEEPSt6vectorINS_10material_tESaISG_EEPSiPS6_SL_(ptr noundef %9, ptr noundef %10, ptr noundef %11, ptr noundef %12, ptr noundef %13)
  store i1 true, ptr %retval, align 1
  br label %return

return:                                           ; preds = %if.end9, %if.end
  %14 = load i1, ptr %retval, align 1
  ret i1 %14

eh.resume:                                        ; preds = %ehcleanup
  %exn = load ptr, ptr %exn.slot, align 8
  %sel = load i32, ptr %ehselector.slot, align 4
  %lpad.val = insertvalue { ptr, i32 } poison, ptr %exn, 0
  %lpad.val11 = insertvalue { ptr, i32 } %lpad.val, i32 %sel, 1
  resume { ptr, i32 } %lpad.val11
}