; Function Attrs: mustprogress uwtable
define noundef zeroext i1 @_ZN7tinyobj20MaterialStreamReaderclERKNSt7__cxx1112basic_stringIcSt11char_traitsIcESaIcEEEPSt6vectorINS_10material_tESaISA_EEPSt3mapIS6_iSt4lessIS6_ESaISt4pairIS7_iEEEPS6_SM_(ptr nocapture noundef nonnull readonly align 8 dereferenceable(16) %this, ptr nocapture nonnull readnone align 8 %matId, ptr noundef %materials, ptr noundef %matMap, ptr noundef %warn, ptr nocapture readnone %err) unnamed_addr #3 align 2 personality ptr @__gxx_personality_v0 {
entry:
  %ss = alloca %"class.std::__cxx11::basic_stringstream", align 8
  %ref.tmp = alloca %"class.std::__cxx11::basic_string", align 8
  %m_inStream = getelementptr inbounds i8, ptr %this, i64 8
  %0 = load ptr, ptr %m_inStream, align 8
  %vtable = load ptr, ptr %0, align 8
  %vbase.offset.ptr = getelementptr i8, ptr %vtable, i64 -24
  %vbase.offset = load i64, ptr %vbase.offset.ptr, align 8
  %add.ptr = getelementptr inbounds i8, ptr %0, i64 %vbase.offset
  %call = tail call noundef zeroext i1 @_ZNKSt9basic_iosIcSt11char_traitsIcEEntEv(ptr noundef nonnull align 8 dereferenceable(264) %add.ptr)
  br i1 %call, label %if.then, label %if.end9

if.then:                                          ; preds = %entry
  call void @_ZNSt7__cxx1118basic_stringstreamIcSt11char_traitsIcESaIcEEC1Ev(ptr noundef nonnull align 8 dereferenceable(128) %ss)
  %add.ptr2 = getelementptr inbounds i8, ptr %ss, i64 16
  %call3 = invoke noundef nonnull align 8 dereferenceable(8) ptr @_ZStlsISt11char_traitsIcEERSt13basic_ostreamIcT_ES5_PKc(ptr noundef nonnull align 8 dereferenceable(8) %add.ptr2, ptr noundef nonnull @.str.44)
          to label %invoke.cont unwind label %lpad

invoke.cont:                                      ; preds = %if.then
  %tobool.not = icmp eq ptr %warn, null
  br i1 %tobool.not, label %if.end, label %if.then4

if.then4:                                         ; preds = %invoke.cont
  invoke void @_ZNKSt7__cxx1118basic_stringstreamIcSt11char_traitsIcESaIcEE3strEv(ptr nonnull sret(%"class.std::__cxx11::basic_string") align 8 %ref.tmp, ptr noundef nonnull align 8 dereferenceable(128) %ss)
          to label %invoke.cont5 unwind label %lpad

invoke.cont5:                                     ; preds = %if.then4
  %call8 = invoke noundef nonnull align 8 dereferenceable(32) ptr @_ZNSt7__cxx1112basic_stringIcSt11char_traitsIcESaIcEEpLERKS4_(ptr noundef nonnull align 8 dereferenceable(32) %warn, ptr noundef nonnull align 8 dereferenceable(32) %ref.tmp)
          to label %invoke.cont7 unwind label %lpad6

invoke.cont7:                                     ; preds = %invoke.cont5
  call void @_ZNSt7__cxx1112basic_stringIcSt11char_traitsIcESaIcEED1Ev(ptr noundef nonnull align 8 dereferenceable(32) %ref.tmp) #24
  br label %if.end

lpad:                                             ; preds = %if.then4, %if.then
  %1 = landingpad { ptr, i32 }
          cleanup
  br label %ehcleanup

lpad6:                                            ; preds = %invoke.cont5
  %2 = landingpad { ptr, i32 }
          cleanup
  call void @_ZNSt7__cxx1112basic_stringIcSt11char_traitsIcESaIcEED1Ev(ptr noundef nonnull align 8 dereferenceable(32) %ref.tmp) #24
  br label %ehcleanup

if.end:                                           ; preds = %invoke.cont7, %invoke.cont
  call void @_ZNSt7__cxx1118basic_stringstreamIcSt11char_traitsIcESaIcEED1Ev(ptr noundef nonnull align 8 dereferenceable(128) %ss) #24
  br label %return

ehcleanup:                                        ; preds = %lpad6, %lpad
  %.pn = phi { ptr, i32 } [ %2, %lpad6 ], [ %1, %lpad ]
  call void @_ZNSt7__cxx1118basic_stringstreamIcSt11char_traitsIcESaIcEED1Ev(ptr noundef nonnull align 8 dereferenceable(128) %ss) #24
  resume { ptr, i32 } %.pn

if.end9:                                          ; preds = %entry
  %3 = load ptr, ptr %m_inStream, align 8
  tail call void @_ZN7tinyobj7LoadMtlEPSt3mapINSt7__cxx1112basic_stringIcSt11char_traitsIcESaIcEEEiSt4lessIS6_ESaISt4pairIKS6_iEEEPSt6vectorINS_10material_tESaISG_EEPSiPS6_SL_(ptr noundef %matMap, ptr noundef %materials, ptr noundef %3, ptr noundef %warn, ptr poison)
  br label %return

return:                                           ; preds = %if.end9, %if.end
  %retval.0 = xor i1 %call, true
  ret i1 %retval.0
}